target datalayout = "e-m:e-p270:32:32-p271:32:32-p272:64:64-i64:64-i128:128-f80:128-n8:16:32:64-S128"
target triple = "x86_64-pc-linux-gnu"

%"class.llvm::SmallVectorBase" = type { ptr, i32, i32 }
%"class.std::_Function_base" = type { %"union.std::_Any_data", ptr }
%"union.std::_Any_data" = type { %"union.std::_Nocopy_types" }
%"union.std::_Nocopy_types" = type { { i64, i64 } }
%"class.std::__cxx11::basic_string" = type { %"struct.std::__cxx11::basic_string<char>::_Alloc_hider", i64, %union.anon }
%"struct.std::__cxx11::basic_string<char>::_Alloc_hider" = type { ptr }
%union.anon = type { i64, [8 x i8] }
%"class.std::optional.111" = type { %"struct.std::_Optional_base.112" }
%"struct.std::_Optional_base.112" = type { %"struct.std::_Optional_payload.114" }
%"struct.std::_Optional_payload.114" = type { %"struct.std::_Optional_payload.base.118", [7 x i8] }
%"struct.std::_Optional_payload.base.118" = type { %"struct.std::_Optional_payload_base.base.117" }
%"struct.std::_Optional_payload_base.base.117" = type <{ %"union.std::_Optional_payload_base<llvm::PGOOptions>::_Storage", i8 }>
%"union.std::_Optional_payload_base<llvm::PGOOptions>::_Storage" = type { %"struct.llvm::PGOOptions" }
%"struct.llvm::PGOOptions" = type { %"class.std::__cxx11::basic_string", %"class.std::__cxx11::basic_string", %"class.std::__cxx11::basic_string", %"class.std::__cxx11::basic_string", i32, i32, i32, i8, i8, i8, %"class.llvm::IntrusiveRefCntPtr" }
%"class.llvm::IntrusiveRefCntPtr" = type { ptr }
%"class.std::function.364" = type { %"class.std::_Function_base", ptr }
%class.anon = type { i8 }
%"class.llvm::PassBuilder" = type { ptr, %"class.llvm::PipelineTuningOptions", [4 x i8], %"class.std::optional.111", ptr, %"class.llvm::SmallVector.279", %"class.llvm::SmallVector.284", %"class.llvm::SmallVector.284", %"class.llvm::SmallVector.279", %"class.llvm::SmallVector.289", %"class.llvm::SmallVector.279", %"class.llvm::SmallVector.294", %"class.llvm::SmallVector.294", %"class.llvm::SmallVector.294", %"class.llvm::SmallVector.294", %"class.llvm::SmallVector.294", %"class.llvm::SmallVector.294", %"class.llvm::SmallVector.299", %"class.llvm::SmallVector.304", %"class.llvm::SmallVector.309", %"class.llvm::SmallVector.314", %"class.llvm::SmallVector.319", %"class.llvm::SmallVector.324", %"class.llvm::SmallVector.329", %"class.llvm::SmallVector.334", %"class.llvm::SmallVector.339", %"class.llvm::SmallVector.344", %"class.llvm::SmallVector.349", %"class.llvm::SmallVector.354", %"class.llvm::SmallVector.359" }
%"class.llvm::PipelineTuningOptions" = type <{ i8, i8, i8, i8, i8, [3 x i8], i32, i32, i8, i8, i8, i8, i32, i8, [3 x i8] }>
%"class.llvm::SmallVector.284" = type { %"class.llvm::SmallVectorImpl.285", %"struct.llvm::SmallVectorStorage.288" }
%"class.llvm::SmallVectorImpl.285" = type { %"class.llvm::SmallVectorTemplateBase.286" }
%"class.llvm::SmallVectorTemplateBase.286" = type { %"class.llvm::SmallVectorTemplateCommon.287" }
%"class.llvm::SmallVectorTemplateCommon.287" = type { %"class.llvm::SmallVectorBase" }
%"struct.llvm::SmallVectorStorage.288" = type { [64 x i8] }
%"class.llvm::SmallVector.289" = type { %"class.llvm::SmallVectorImpl.290", %"struct.llvm::SmallVectorStorage.293" }
%"class.llvm::SmallVectorImpl.290" = type { %"class.llvm::SmallVectorTemplateBase.291" }
%"class.llvm::SmallVectorTemplateBase.291" = type { %"class.llvm::SmallVectorTemplateCommon.292" }
%"class.llvm::SmallVectorTemplateCommon.292" = type { %"class.llvm::SmallVectorBase" }
%"struct.llvm::SmallVectorStorage.293" = type { [64 x i8] }
%"class.llvm::SmallVector.279" = type { %"class.llvm::SmallVectorImpl.280", %"struct.llvm::SmallVectorStorage.283" }
%"class.llvm::SmallVectorImpl.280" = type { %"class.llvm::SmallVectorTemplateBase.281" }
%"class.llvm::SmallVectorTemplateBase.281" = type { %"class.llvm::SmallVectorTemplateCommon.282" }
%"class.llvm::SmallVectorTemplateCommon.282" = type { %"class.llvm::SmallVectorBase" }
%"struct.llvm::SmallVectorStorage.283" = type { [64 x i8] }
%"class.llvm::SmallVector.294" = type { %"class.llvm::SmallVectorImpl.295", %"struct.llvm::SmallVectorStorage.298" }
%"class.llvm::SmallVectorImpl.295" = type { %"class.llvm::SmallVectorTemplateBase.296" }
%"class.llvm::SmallVectorTemplateBase.296" = type { %"class.llvm::SmallVectorTemplateCommon.297" }
%"class.llvm::SmallVectorTemplateCommon.297" = type { %"class.llvm::SmallVectorBase" }
%"struct.llvm::SmallVectorStorage.298" = type { [64 x i8] }
%"class.llvm::SmallVector.299" = type { %"class.llvm::SmallVectorImpl.300", %"struct.llvm::SmallVectorStorage.303" }
%"class.llvm::SmallVectorImpl.300" = type { %"class.llvm::SmallVectorTemplateBase.301" }
%"class.llvm::SmallVectorTemplateBase.301" = type { %"class.llvm::SmallVectorTemplateCommon.302" }
%"class.llvm::SmallVectorTemplateCommon.302" = type { %"class.llvm::SmallVectorBase" }
%"struct.llvm::SmallVectorStorage.303" = type { [64 x i8] }
%"class.llvm::SmallVector.304" = type { %"class.llvm::SmallVectorImpl.305", %"struct.llvm::SmallVectorStorage.308" }
%"class.llvm::SmallVectorImpl.305" = type { %"class.llvm::SmallVectorTemplateBase.306" }
%"class.llvm::SmallVectorTemplateBase.306" = type { %"class.llvm::SmallVectorTemplateCommon.307" }
%"class.llvm::SmallVectorTemplateCommon.307" = type { %"class.llvm::SmallVectorBase" }
%"struct.llvm::SmallVectorStorage.308" = type { [64 x i8] }
%"class.llvm::SmallVector.309" = type { %"class.llvm::SmallVectorImpl.310", %"struct.llvm::SmallVectorStorage.313" }
%"class.llvm::SmallVectorImpl.310" = type { %"class.llvm::SmallVectorTemplateBase.311" }
%"class.llvm::SmallVectorTemplateBase.311" = type { %"class.llvm::SmallVectorTemplateCommon.312" }
%"class.llvm::SmallVectorTemplateCommon.312" = type { %"class.llvm::SmallVectorBase" }
%"struct.llvm::SmallVectorStorage.313" = type { [64 x i8] }
%"class.llvm::SmallVector.314" = type { %"class.llvm::SmallVectorImpl.315", %"struct.llvm::SmallVectorStorage.318" }
%"class.llvm::SmallVectorImpl.315" = type { %"class.llvm::SmallVectorTemplateBase.316" }
%"class.llvm::SmallVectorTemplateBase.316" = type { %"class.llvm::SmallVectorTemplateCommon.317" }
%"class.llvm::SmallVectorTemplateCommon.317" = type { %"class.llvm::SmallVectorBase" }
%"struct.llvm::SmallVectorStorage.318" = type { [64 x i8] }
%"class.llvm::SmallVector.319" = type { %"class.llvm::SmallVectorImpl.320", %"struct.llvm::SmallVectorStorage.323" }
%"class.llvm::SmallVectorImpl.320" = type { %"class.llvm::SmallVectorTemplateBase.321" }
%"class.llvm::SmallVectorTemplateBase.321" = type { %"class.llvm::SmallVectorTemplateCommon.322" }
%"class.llvm::SmallVectorTemplateCommon.322" = type { %"class.llvm::SmallVectorBase" }
%"struct.llvm::SmallVectorStorage.323" = type { [64 x i8] }
%"class.llvm::SmallVector.324" = type { %"class.llvm::SmallVectorImpl.325", %"struct.llvm::SmallVectorStorage.328" }
%"class.llvm::SmallVectorImpl.325" = type { %"class.llvm::SmallVectorTemplateBase.326" }
%"class.llvm::SmallVectorTemplateBase.326" = type { %"class.llvm::SmallVectorTemplateCommon.327" }
%"class.llvm::SmallVectorTemplateCommon.327" = type { %"class.llvm::SmallVectorBase" }
%"struct.llvm::SmallVectorStorage.328" = type { [64 x i8] }
%"class.llvm::SmallVector.329" = type { %"class.llvm::SmallVectorImpl.330", %"struct.llvm::SmallVectorStorage.333" }
%"class.llvm::SmallVectorImpl.330" = type { %"class.llvm::SmallVectorTemplateBase.331" }
%"class.llvm::SmallVectorTemplateBase.331" = type { %"class.llvm::SmallVectorTemplateCommon.332" }
%"class.llvm::SmallVectorTemplateCommon.332" = type { %"class.llvm::SmallVectorBase" }
%"struct.llvm::SmallVectorStorage.333" = type { [64 x i8] }
%"class.llvm::SmallVector.334" = type { %"class.llvm::SmallVectorImpl.335", %"struct.llvm::SmallVectorStorage.338" }
%"class.llvm::SmallVectorImpl.335" = type { %"class.llvm::SmallVectorTemplateBase.336" }
%"class.llvm::SmallVectorTemplateBase.336" = type { %"class.llvm::SmallVectorTemplateCommon.337" }
%"class.llvm::SmallVectorTemplateCommon.337" = type { %"class.llvm::SmallVectorBase" }
%"struct.llvm::SmallVectorStorage.338" = type { [64 x i8] }
%"class.llvm::SmallVector.339" = type { %"class.llvm::SmallVectorImpl.340", %"struct.llvm::SmallVectorStorage.343" }
%"class.llvm::SmallVectorImpl.340" = type { %"class.llvm::SmallVectorTemplateBase.341" }
%"class.llvm::SmallVectorTemplateBase.341" = type { %"class.llvm::SmallVectorTemplateCommon.342" }
%"class.llvm::SmallVectorTemplateCommon.342" = type { %"class.llvm::SmallVectorBase" }
%"struct.llvm::SmallVectorStorage.343" = type { [64 x i8] }
%"class.llvm::SmallVector.344" = type { %"class.llvm::SmallVectorImpl.345", %"struct.llvm::SmallVectorStorage.348" }
%"class.llvm::SmallVectorImpl.345" = type { %"class.llvm::SmallVectorTemplateBase.346" }
%"class.llvm::SmallVectorTemplateBase.346" = type { %"class.llvm::SmallVectorTemplateCommon.347" }
%"class.llvm::SmallVectorTemplateCommon.347" = type { %"class.llvm::SmallVectorBase" }
%"struct.llvm::SmallVectorStorage.348" = type { [64 x i8] }
%"class.llvm::SmallVector.349" = type { %"class.llvm::SmallVectorImpl.350", %"struct.llvm::SmallVectorStorage.353" }
%"class.llvm::SmallVectorImpl.350" = type { %"class.llvm::SmallVectorTemplateBase.351" }
%"class.llvm::SmallVectorTemplateBase.351" = type { %"class.llvm::SmallVectorTemplateCommon.352" }
%"class.llvm::SmallVectorTemplateCommon.352" = type { %"class.llvm::SmallVectorBase" }
%"struct.llvm::SmallVectorStorage.353" = type { [64 x i8] }
%"class.llvm::SmallVector.354" = type { %"class.llvm::SmallVectorImpl.355", %"struct.llvm::SmallVectorStorage.358" }
%"class.llvm::SmallVectorImpl.355" = type { %"class.llvm::SmallVectorTemplateBase.356" }
%"class.llvm::SmallVectorTemplateBase.356" = type { %"class.llvm::SmallVectorTemplateCommon.357" }
%"class.llvm::SmallVectorTemplateCommon.357" = type { %"class.llvm::SmallVectorBase" }
%"struct.llvm::SmallVectorStorage.358" = type { [64 x i8] }
%"class.llvm::SmallVector.359" = type { %"class.llvm::SmallVectorImpl.360", %"struct.llvm::SmallVectorStorage.363" }
%"class.llvm::SmallVectorImpl.360" = type { %"class.llvm::SmallVectorTemplateBase.361" }
%"class.llvm::SmallVectorTemplateBase.361" = type { %"class.llvm::SmallVectorTemplateCommon.362" }
%"class.llvm::SmallVectorTemplateCommon.362" = type { %"class.llvm::SmallVectorBase" }
%"struct.llvm::SmallVectorStorage.363" = type { [64 x i8] }

; Function Attrs: mustprogress nounwind uwtable
define linkonce_odr hidden noundef ptr @_ZNSt9_Any_data9_M_accessEv(ptr noundef nonnull align 8 dereferenceable(16) %0) #1 comdat align 2 {
  %2 = alloca ptr, align 8
  store ptr %0, ptr %2, align 8
  %3 = load ptr, ptr %2, align 8
  %4 = getelementptr inbounds [16 x i8], ptr %3, i64 0, i64 0
  ret ptr %4
}

; Function Attrs: mustprogress nounwind uwtable
define internal void @"_ZNSt14_Function_base13_Base_managerIZN4llvm18RISCVTargetMachine28registerPassBuilderCallbacksERNS1_11PassBuilderEE3$_0E9_M_createIS5_EEvRSt9_Any_dataOT_St17integral_constantIbLb1EE"(ptr noundef nonnull align 8 dereferenceable(16) %0, ptr noundef nonnull align 1 dereferenceable(1) %1) #1 align 2 {
  %3 = alloca ptr, align 8
  %4 = alloca ptr, align 8
  store ptr %0, ptr %3, align 8
  store ptr %1, ptr %4, align 8
  %5 = load ptr, ptr %3, align 8
  %6 = call noundef ptr @_ZNSt9_Any_data9_M_accessEv(ptr noundef nonnull align 8 dereferenceable(16) %5) #2
  ret void
}

; Function Attrs: mustprogress nounwind uwtable
define linkonce_odr hidden void @_ZNSt14_Function_baseD2Ev(ptr noundef nonnull align 8 dereferenceable(24) %0) unnamed_addr #1 comdat align 2 {
  %2 = alloca ptr, align 8
  store ptr %0, ptr %2, align 8
  %3 = load ptr, ptr %2, align 8
  %4 = getelementptr inbounds nuw %"class.std::_Function_base", ptr %3, i32 0, i32 1
  %5 = load ptr, ptr %4, align 8
  %6 = icmp ne ptr %5, null
  br i1 %6, label %7, label %13

7:                                                ; preds = %1
  %8 = getelementptr inbounds nuw %"class.std::_Function_base", ptr %3, i32 0, i32 1
  %9 = load ptr, ptr %8, align 8
  %10 = getelementptr inbounds nuw %"class.std::_Function_base", ptr %3, i32 0, i32 0
  %11 = getelementptr inbounds nuw %"class.std::_Function_base", ptr %3, i32 0, i32 0
  %12 = call noundef zeroext i1 %9(ptr noundef nonnull align 8 dereferenceable(16) %10, ptr noundef nonnull align 8 dereferenceable(16) %11, i32 noundef 3)
  br label %13

13:                                               ; preds = %7, %1
  ret void
}

; Function Attrs: mustprogress nounwind uwtable
define internal void @"_ZNSt14_Function_base13_Base_managerIZN4llvm18RISCVTargetMachine28registerPassBuilderCallbacksERNS1_11PassBuilderEE3$_0E15_M_init_functorIS5_EEvRSt9_Any_dataOT_"(ptr noundef nonnull align 8 dereferenceable(16) %0, ptr noundef nonnull align 1 dereferenceable(1) %1) #1 align 2 {
  %3 = alloca ptr, align 8
  %4 = alloca ptr, align 8
  store ptr %0, ptr %3, align 8
  store ptr %1, ptr %4, align 8
  %5 = load ptr, ptr %3, align 8
  %6 = load ptr, ptr %4, align 8
  call void @"_ZNSt14_Function_base13_Base_managerIZN4llvm18RISCVTargetMachine28registerPassBuilderCallbacksERNS1_11PassBuilderEE3$_0E9_M_createIS5_EEvRSt9_Any_dataOT_St17integral_constantIbLb1EE"(ptr noundef nonnull align 8 dereferenceable(16) %5, ptr noundef nonnull align 1 dereferenceable(1) %6)
  ret void
}

; Function Attrs: mustprogress nounwind uwtable
define internal noundef zeroext i1 @"_ZNSt14_Function_base13_Base_managerIZN4llvm18RISCVTargetMachine28registerPassBuilderCallbacksERNS1_11PassBuilderEE3$_0E21_M_not_empty_functionIS5_EEbRKT_"(ptr noundef nonnull align 1 dereferenceable(1) %0) #1 align 2 {
  %2 = alloca ptr, align 8
  store ptr %0, ptr %2, align 8
  ret i1 true
}

; Function Attrs: mustprogress nounwind uwtable
define linkonce_odr hidden void @_ZNSt14_Function_baseC2Ev(ptr noundef nonnull align 8 dereferenceable(24) %0) unnamed_addr #1 comdat align 2 {
  %2 = alloca ptr, align 8
  store ptr %0, ptr %2, align 8
  %3 = load ptr, ptr %2, align 8
  %4 = getelementptr inbounds nuw %"class.std::_Function_base", ptr %3, i32 0, i32 0
  store ptr null, ptr %4, align 8
  %5 = getelementptr inbounds nuw %"class.std::_Function_base", ptr %3, i32 0, i32 1
  store ptr null, ptr %5, align 8
  ret void
}

; Function Attrs: mustprogress nounwind uwtable
define linkonce_odr hidden void @_ZNSt8functionIFvRN4llvm11PassManagerINS0_4LoopENS0_15AnalysisManagerIS2_JRNS0_27LoopStandardAnalysisResultsEEEEJS5_RNS0_10LPMUpdaterEEEENS0_17OptimizationLevelEEED2Ev(ptr noundef nonnull align 8 dereferenceable(32) %0) unnamed_addr #1 comdat align 2 {
  %2 = alloca ptr, align 8
  store ptr %0, ptr %2, align 8
  %3 = load ptr, ptr %2, align 8
  call void @_ZNSt14_Function_baseD2Ev(ptr noundef nonnull align 8 dereferenceable(24) %3) #2
  ret void
}

; Function Attrs: mustprogress nounwind uwtable
define linkonce_odr hidden void @_ZN4llvm11PassBuilder39registerLateLoopOptimizationsEPCallbackERKSt8functionIFvRNS_11PassManagerINS_4LoopENS_15AnalysisManagerIS3_JRNS_27LoopStandardAnalysisResultsEEEEJS6_RNS_10LPMUpdaterEEEENS_17OptimizationLevelEEE(ptr noundef nonnull align 8 dereferenceable(2208) %0, ptr noundef nonnull align 8 dereferenceable(32) %1) #1 comdat align 2 {
  %3 = alloca ptr, align 8
  %4 = alloca ptr, align 8
  store ptr %0, ptr %3, align 8
  store ptr %1, ptr %4, align 8
  %5 = load ptr, ptr %3, align 8
  %6 = getelementptr inbounds nuw %"class.llvm::PassBuilder", ptr %5, i32 0, i32 6
  %7 = load ptr, ptr %4, align 8
  call void @_ZN4llvm23SmallVectorTemplateBaseISt8functionIFvRNS_11PassManagerINS_4LoopENS_15AnalysisManagerIS3_JRNS_27LoopStandardAnalysisResultsEEEEJS6_RNS_10LPMUpdaterEEEENS_17OptimizationLevelEEELb0EE9push_backERKSE_(ptr noundef nonnull align 8 dereferenceable(16) %6, ptr noundef nonnull align 8 dereferenceable(32) %7)
  ret void
}

; Function Attrs: mustprogress nounwind uwtable
define internal void @"_ZNSt8functionIFvRN4llvm11PassManagerINS0_4LoopENS0_15AnalysisManagerIS2_JRNS0_27LoopStandardAnalysisResultsEEEEJS5_RNS0_10LPMUpdaterEEEENS0_17OptimizationLevelEEEC2IZNS0_18RISCVTargetMachine28registerPassBuilderCallbacksERNS0_11PassBuilderEE3$_0vEEOT_"(ptr noundef nonnull align 8 dereferenceable(32) %0, ptr noundef nonnull align 1 dereferenceable(1) %1) unnamed_addr #1 align 2 {
  %3 = alloca ptr, align 8
  %4 = alloca ptr, align 8
  store ptr %0, ptr %3, align 8
  store ptr %1, ptr %4, align 8
  %5 = load ptr, ptr %3, align 8
  %6 = getelementptr inbounds i8, ptr %5, i64 0
  call void @llvm.memset.p0.i64(ptr align 8 %6, i8 0, i64 24, i1 false)
  call void @_ZNSt14_Function_baseC2Ev(ptr noundef nonnull align 8 dereferenceable(24) %5) #2
  %7 = getelementptr inbounds nuw %"class.std::function.364", ptr %5, i32 0, i32 1
  store ptr null, ptr %7, align 8
  %8 = load ptr, ptr %4, align 8
  %9 = call noundef zeroext i1 @"_ZNSt14_Function_base13_Base_managerIZN4llvm18RISCVTargetMachine28registerPassBuilderCallbacksERNS1_11PassBuilderEE3$_0E21_M_not_empty_functionIS5_EEbRKT_"(ptr noundef nonnull align 1 dereferenceable(1) %8) #2
  br i1 %9, label %10, label %15

10:                                               ; preds = %2
  %11 = getelementptr inbounds nuw %"class.std::_Function_base", ptr %5, i32 0, i32 0
  %12 = load ptr, ptr %4, align 8
  call void @"_ZNSt14_Function_base13_Base_managerIZN4llvm18RISCVTargetMachine28registerPassBuilderCallbacksERNS1_11PassBuilderEE3$_0E15_M_init_functorIS5_EEvRSt9_Any_dataOT_"(ptr noundef nonnull align 8 dereferenceable(16) %11, ptr noundef nonnull align 1 dereferenceable(1) %12) #2
  %13 = getelementptr inbounds nuw %"class.std::function.364", ptr %5, i32 0, i32 1
  store ptr @"_ZNSt17_Function_handlerIFvRN4llvm11PassManagerINS0_4LoopENS0_15AnalysisManagerIS2_JRNS0_27LoopStandardAnalysisResultsEEEEJS5_RNS0_10LPMUpdaterEEEENS0_17OptimizationLevelEEZNS0_18RISCVTargetMachine28registerPassBuilderCallbacksERNS0_11PassBuilderEE3$_0E9_M_invokeERKSt9_Any_dataSA_OSB_", ptr %13, align 8
  %14 = getelementptr inbounds nuw %"class.std::_Function_base", ptr %5, i32 0, i32 1
  store ptr @"_ZNSt17_Function_handlerIFvRN4llvm11PassManagerINS0_4LoopENS0_15AnalysisManagerIS2_JRNS0_27LoopStandardAnalysisResultsEEEEJS5_RNS0_10LPMUpdaterEEEENS0_17OptimizationLevelEEZNS0_18RISCVTargetMachine28registerPassBuilderCallbacksERNS0_11PassBuilderEE3$_0E10_M_managerERSt9_Any_dataRKSI_St18_Manager_operation", ptr %14, align 8
  br label %15

15:                                               ; preds = %10, %2
  ret void
}

; Function Attrs: mustprogress nounwind uwtable
define dso_local void @_ZN4llvm18RISCVTargetMachine28registerPassBuilderCallbacksERNS_11PassBuilderE(ptr noundef nonnull align 8 dereferenceable(1264) %0, ptr noundef nonnull align 8 dereferenceable(2208) %1) unnamed_addr #1 align 2 {
  %3 = alloca ptr, align 8
  %4 = alloca ptr, align 8
  %5 = alloca %"class.std::function.364", align 8
  %6 = alloca %class.anon, align 1
  store ptr %0, ptr %3, align 8
  store ptr %1, ptr %4, align 8
  %7 = load ptr, ptr %4, align 8
  call void @"_ZNSt8functionIFvRN4llvm11PassManagerINS0_4LoopENS0_15AnalysisManagerIS2_JRNS0_27LoopStandardAnalysisResultsEEEEJS5_RNS0_10LPMUpdaterEEEENS0_17OptimizationLevelEEEC2IZNS0_18RISCVTargetMachine28registerPassBuilderCallbacksERNS0_11PassBuilderEE3$_0vEEOT_"(ptr noundef nonnull align 8 dereferenceable(32) %5, ptr noundef nonnull align 1 dereferenceable(1) %6) #2
  call void @_ZN4llvm11PassBuilder39registerLateLoopOptimizationsEPCallbackERKSt8functionIFvRNS_11PassManagerINS_4LoopENS_15AnalysisManagerIS3_JRNS_27LoopStandardAnalysisResultsEEEEJS6_RNS_10LPMUpdaterEEEENS_17OptimizationLevelEEE(ptr noundef nonnull align 8 dereferenceable(2208) %7, ptr noundef nonnull align 8 dereferenceable(32) %5)
  call void @_ZNSt8functionIFvRN4llvm11PassManagerINS0_4LoopENS0_15AnalysisManagerIS2_JRNS0_27LoopStandardAnalysisResultsEEEEJS5_RNS0_10LPMUpdaterEEEENS0_17OptimizationLevelEEED2Ev(ptr noundef nonnull align 8 dereferenceable(32) %5) #2
  ret void
}