; Function Attrs: mustprogress nounwind uwtable
define dso_local void @_ZN4llvm18RISCVTargetMachine28registerPassBuilderCallbacksERNS_11PassBuilderE(ptr nocapture nonnull readnone align 8 %0, ptr noundef nonnull align 8 dereferenceable(2208) %1) unnamed_addr #0 align 2 {
  %3 = alloca %"class.std::function.364", align 8
  %4 = getelementptr inbounds nuw i8, ptr %3, i64 16
  %5 = getelementptr inbounds nuw i8, ptr %3, i64 24
  call void @llvm.memset.p0.i64(ptr noundef nonnull align 8 dereferenceable(16) %3, i8 0, i64 16, i1 false)
  store ptr @"_ZNSt17_Function_handlerIFvRN4llvm11PassManagerINS0_4LoopENS0_15AnalysisManagerIS2_JRNS0_27LoopStandardAnalysisResultsEEEEJS5_RNS0_10LPMUpdaterEEEENS0_17OptimizationLevelEEZNS0_18RISCVTargetMachine28registerPassBuilderCallbacksERNS0_11PassBuilderEE3$_0E9_M_invokeERKSt9_Any_dataSA_OSB_", ptr %5, align 8
  store ptr @"_ZNSt17_Function_handlerIFvRN4llvm11PassManagerINS0_4LoopENS0_15AnalysisManagerIS2_JRNS0_27LoopStandardAnalysisResultsEEEEJS5_RNS0_10LPMUpdaterEEEENS0_17OptimizationLevelEEZNS0_18RISCVTargetMachine28registerPassBuilderCallbacksERNS0_11PassBuilderEE3$_0E10_M_managerERSt9_Any_dataRKSI_St18_Manager_operation", ptr %4, align 8
  %6 = getelementptr inbounds nuw i8, ptr %1, i64 288
  call void @_ZN4llvm23SmallVectorTemplateBaseISt8functionIFvRNS_11PassManagerINS_4LoopENS_15AnalysisManagerIS3_JRNS_27LoopStandardAnalysisResultsEEEEJS6_RNS_10LPMUpdaterEEEENS_17OptimizationLevelEEELb0EE9push_backERKSE_(ptr noundef nonnull align 8 dereferenceable(16) %6, ptr noundef nonnull align 8 dereferenceable(32) %3)
  %7 = load ptr, ptr %4, align 8
  %.not.i.i = icmp eq ptr %7, null
  br i1 %.not.i.i, label %_ZNSt8functionIFvRN4llvm11PassManagerINS0_4LoopENS0_15AnalysisManagerIS2_JRNS0_27LoopStandardAnalysisResultsEEEEJS5_RNS0_10LPMUpdaterEEEENS0_17OptimizationLevelEEED2Ev.exit, label %8

8:                                                ; preds = %2
  %9 = call noundef zeroext i1 %7(ptr noundef nonnull align 8 dereferenceable(16) %3, ptr noundef nonnull align 8 dereferenceable(16) %3, i32 noundef 3) #24
  br label %_ZNSt8functionIFvRN4llvm11PassManagerINS0_4LoopENS0_15AnalysisManagerIS2_JRNS0_27LoopStandardAnalysisResultsEEEEJS5_RNS0_10LPMUpdaterEEEENS0_17OptimizationLevelEEED2Ev.exit

_ZNSt8functionIFvRN4llvm11PassManagerINS0_4LoopENS0_15AnalysisManagerIS2_JRNS0_27LoopStandardAnalysisResultsEEEEJS5_RNS0_10LPMUpdaterEEEENS0_17OptimizationLevelEEED2Ev.exit: ; preds = %2, %8
  ret void
}